; Function Attrs: nounwind uwtable
define hidden ptr @ASN1_item_new(ptr noundef %0) local_unnamed_addr #0 {
  %2 = alloca ptr, align 8
  call void @llvm.lifetime.start.p0(i64 8, ptr nonnull %2) #5
  store ptr null, ptr %2, align 8, !tbaa !6
  %3 = call fastcc range(i32 0, 2) i32 @asn1_item_ex_combine_new(ptr noundef nonnull %2, ptr noundef %0, i32 noundef 0)
  %.not = icmp eq i32 %3, 0
  %4 = load ptr, ptr %2, align 8
  %.0 = select i1 %.not, ptr null, ptr %4
  call void @llvm.lifetime.end.p0(i64 8, ptr nonnull %2) #5
  ret ptr %.0
}